; Function Attrs: null_pointer_is_valid sspstrong uwtable
define internal fastcc i32 @dissect_rsl_ie_ms_pow_params(ptr noundef %0, ptr noundef %1, i32 noundef %2) unnamed_addr #0 {
  %4 = alloca ptr, align 8
  call void @llvm.lifetime.start.p0(i64 8, ptr nonnull %4) #6
  %5 = tail call zeroext i8 @tvb_get_uint8(ptr noundef %0, i32 noundef %2)
  %.not = icmp eq i8 %5, 31
  br i1 %.not, label %6, label %20

6:                                                ; preds = %3
  %7 = load i32, ptr @ett_ie_ms_pow_params, align 4
  %8 = call ptr @proto_tree_add_subtree(ptr noundef %1, ptr noundef %0, i32 noundef %2, i32 noundef 0, i32 noundef %7, ptr noundef nonnull %4, ptr noundef nonnull @.str.806)
  %9 = load i32, ptr @hf_rsl_ie_id, align 4
  %10 = call ptr @proto_tree_add_item(ptr noundef %8, i32 noundef %9, ptr noundef %0, i32 noundef %2, i32 noundef 1, i32 noundef 0)
  %11 = add i32 %2, 1
  %12 = call zeroext i8 @tvb_get_uint8(ptr noundef %0, i32 noundef %11)
  %13 = zext i8 %12 to i32
  %14 = load ptr, ptr %4, align 8
  %15 = add nuw nsw i32 %13, 2
  call void @proto_item_set_len(ptr noundef %14, i32 noundef %15)
  %16 = load i32, ptr @hf_rsl_ie_length, align 4
  %17 = call ptr @proto_tree_add_item(ptr noundef %8, i32 noundef %16, ptr noundef %0, i32 noundef %11, i32 noundef 1, i32 noundef 0)
  %18 = add i32 %2, 2
  %19 = add i32 %18, %13
  br label %20

20:                                               ; preds = %3, %6
  %.0 = phi i32 [ %19, %6 ], [ %2, %3 ]
  call void @llvm.lifetime.end.p0(i64 8, ptr nonnull %4) #6
  ret i32 %.0
}